target datalayout = "e-m:e-p270:32:32-p271:32:32-p272:64:64-i64:64-i128:128-f80:128-n8:16:32:64-S128"
target triple = "x86_64-unknown-linux-gnu"

; Function Attrs: mustprogress uwtable
define noundef double @_ZNK8QuantLib16BlackAtmVolCurve6atmVolEdb(ptr noundef nonnull align 8 dereferenceable(68) %this, double noundef %t, i1 noundef zeroext %extrapolate) #6 align 2 {
entry:
  %this.addr = alloca ptr, align 8
  %t.addr = alloca double, align 8
  %extrapolate.addr = alloca i8, align 1
  store ptr %this, ptr %this.addr, align 8, !tbaa !3
  store double %t, ptr %t.addr, align 8, !tbaa !28
  %storedv = zext i1 %extrapolate to i8
  store i8 %storedv, ptr %extrapolate.addr, align 1, !tbaa !25
  %this1 = load ptr, ptr %this.addr, align 8
  %0 = load double, ptr %t.addr, align 8, !tbaa !28
  %1 = load i8, ptr %extrapolate.addr, align 1, !tbaa !25, !range !26, !noundef !27
  %loadedv = trunc i8 %1 to i1
  call void @_ZNK8QuantLib13TermStructure10checkRangeEdb(ptr noundef nonnull align 8 dereferenceable(64) %this1, double noundef %0, i1 noundef zeroext %loadedv)
  %2 = load double, ptr %t.addr, align 8, !tbaa !28
  %vtable = load ptr, ptr %this1, align 8, !tbaa !22
  %vfn = getelementptr inbounds ptr, ptr %vtable, i64 14
  %3 = load ptr, ptr %vfn, align 8
  %call = call noundef double %3(ptr noundef nonnull align 8 dereferenceable(68) %this1, double noundef %2)
  ret double %call
}

; Function Attrs: mustprogress uwtable
define noundef double @_ZNK8QuantLib16BlackAtmVolCurve6atmVolERKNS_4DateEb(ptr noundef nonnull align 8 dereferenceable(68) %this, ptr noundef nonnull align 8 dereferenceable(8) %d, i1 noundef zeroext %extrapolate) #6 align 2 {
entry:
  %this.addr = alloca ptr, align 8
  %d.addr = alloca ptr, align 8
  %extrapolate.addr = alloca i8, align 1
  %t = alloca double, align 8
  store ptr %this, ptr %this.addr, align 8, !tbaa !3
  store ptr %d, ptr %d.addr, align 8, !tbaa !3
  %storedv = zext i1 %extrapolate to i8
  store i8 %storedv, ptr %extrapolate.addr, align 1, !tbaa !25
  %this1 = load ptr, ptr %this.addr, align 8
  call void @llvm.lifetime.start.p0(i64 8, ptr %t) #18
  %0 = load ptr, ptr %d.addr, align 8, !tbaa !3
  %call = call noundef double @_ZNK8QuantLib13TermStructure17timeFromReferenceERKNS_4DateE(ptr noundef nonnull align 8 dereferenceable(64) %this1, ptr noundef nonnull align 8 dereferenceable(8) %0)
  store double %call, ptr %t, align 8, !tbaa !28
  %1 = load double, ptr %t, align 8, !tbaa !28
  %2 = load i8, ptr %extrapolate.addr, align 1, !tbaa !25, !range !26, !noundef !27
  %loadedv = trunc i8 %2 to i1
  %call2 = call noundef double @_ZNK8QuantLib16BlackAtmVolCurve6atmVolEdb(ptr noundef nonnull align 8 dereferenceable(68) %this1, double noundef %1, i1 noundef zeroext %loadedv)
  call void @llvm.lifetime.end.p0(i64 8, ptr %t) #18
  ret double %call2
}