; Function Attrs: mustprogress uwtable
define noundef double @_ZNK8QuantLib16BlackAtmVolCurve6atmVolERKNS_4DateEb(ptr noundef nonnull align 8 dereferenceable(68) %this, ptr noundef nonnull align 8 dereferenceable(8) %d, i1 noundef zeroext %extrapolate) local_unnamed_addr #5 align 2 {
entry:
  %call = tail call noundef double @_ZNK8QuantLib13TermStructure17timeFromReferenceERKNS_4DateE(ptr noundef nonnull align 8 dereferenceable(64) %this, ptr noundef nonnull align 8 dereferenceable(8) %d)
  tail call void @_ZNK8QuantLib13TermStructure10checkRangeEdb(ptr noundef nonnull align 8 dereferenceable(64) %this, double noundef %call, i1 noundef zeroext %extrapolate)
  %vtable.i = load ptr, ptr %this, align 8, !tbaa !22
  %vfn.i = getelementptr inbounds i8, ptr %vtable.i, i64 112
  %0 = load ptr, ptr %vfn.i, align 8
  %call.i = tail call noundef double %0(ptr noundef nonnull align 8 dereferenceable(68) %this, double noundef %call)
  ret double %call.i
}